target datalayout = "e-m:e-p270:32:32-p271:32:32-p272:64:64-i64:64-i128:128-f80:128-n8:16:32:64-S128"
target triple = "x86_64-unknown-linux-gnu"

%"class.icu_75::SearchIterator" = type { %"class.icu_75::UObject", ptr, ptr, %"class.icu_75::UnicodeString" }
%"class.icu_75::UObject" = type { ptr }
%"class.icu_75::UnicodeString" = type { %"class.icu_75::Replaceable", %"union.icu_75::UnicodeString::StackBufferOrFields" }
%"class.icu_75::Replaceable" = type { %"class.icu_75::UObject" }
%"union.icu_75::UnicodeString::StackBufferOrFields" = type { %struct.anon.0, [32 x i8] }
%struct.anon.0 = type { i16, i32, i32, ptr }
%struct.USearch = type { ptr, i32, i8, i8, i16, ptr, ptr, i32, i32, i8, i8 }

; Function Attrs: mustprogress uwtable
define noundef nonnull align 8 dereferenceable(88) ptr @_ZN6icu_7514SearchIteratoraSERKS0_(ptr noundef nonnull align 8 dereferenceable(88) %this, ptr noundef nonnull align 8 dereferenceable(88) %that) #0 align 2 {
entry:
  %this.addr = alloca ptr, align 8
  %that.addr = alloca ptr, align 8
  store ptr %this, ptr %this.addr, align 8
  store ptr %that, ptr %that.addr, align 8
  %this1 = load ptr, ptr %this.addr, align 8
  %0 = load ptr, ptr %that.addr, align 8
  %cmp = icmp ne ptr %this1, %0
  br i1 %cmp, label %if.then, label %if.end

if.then:                                          ; preds = %entry
  %1 = load ptr, ptr %that.addr, align 8
  %m_breakiterator_ = getelementptr inbounds %"class.icu_75::SearchIterator", ptr %1, i32 0, i32 2
  %2 = load ptr, ptr %m_breakiterator_, align 8
  %m_breakiterator_2 = getelementptr inbounds %"class.icu_75::SearchIterator", ptr %this1, i32 0, i32 2
  store ptr %2, ptr %m_breakiterator_2, align 8
  %3 = load ptr, ptr %that.addr, align 8
  %m_text_ = getelementptr inbounds %"class.icu_75::SearchIterator", ptr %3, i32 0, i32 3
  %m_text_3 = getelementptr inbounds %"class.icu_75::SearchIterator", ptr %this1, i32 0, i32 3
  %call = call noundef nonnull align 8 dereferenceable(64) ptr @_ZN6icu_7513UnicodeStringaSERKS0_(ptr noundef nonnull align 8 dereferenceable(64) %m_text_3, ptr noundef nonnull align 8 dereferenceable(64) %m_text_)
  %4 = load ptr, ptr %that.addr, align 8
  %m_search_ = getelementptr inbounds %"class.icu_75::SearchIterator", ptr %4, i32 0, i32 1
  %5 = load ptr, ptr %m_search_, align 8
  %breakIter = getelementptr inbounds %struct.USearch, ptr %5, i32 0, i32 6
  %6 = load ptr, ptr %breakIter, align 8
  %m_search_4 = getelementptr inbounds %"class.icu_75::SearchIterator", ptr %this1, i32 0, i32 1
  %7 = load ptr, ptr %m_search_4, align 8
  %breakIter5 = getelementptr inbounds %struct.USearch, ptr %7, i32 0, i32 6
  store ptr %6, ptr %breakIter5, align 8
  %8 = load ptr, ptr %that.addr, align 8
  %m_search_6 = getelementptr inbounds %"class.icu_75::SearchIterator", ptr %8, i32 0, i32 1
  %9 = load ptr, ptr %m_search_6, align 8
  %isCanonicalMatch = getelementptr inbounds %struct.USearch, ptr %9, i32 0, i32 3
  %10 = load i8, ptr %isCanonicalMatch, align 1
  %m_search_7 = getelementptr inbounds %"class.icu_75::SearchIterator", ptr %this1, i32 0, i32 1
  %11 = load ptr, ptr %m_search_7, align 8
  %isCanonicalMatch8 = getelementptr inbounds %struct.USearch, ptr %11, i32 0, i32 3
  store i8 %10, ptr %isCanonicalMatch8, align 1
  %12 = load ptr, ptr %that.addr, align 8
  %m_search_9 = getelementptr inbounds %"class.icu_75::SearchIterator", ptr %12, i32 0, i32 1
  %13 = load ptr, ptr %m_search_9, align 8
  %isOverlap = getelementptr inbounds %struct.USearch, ptr %13, i32 0, i32 2
  %14 = load i8, ptr %isOverlap, align 4
  %m_search_10 = getelementptr inbounds %"class.icu_75::SearchIterator", ptr %this1, i32 0, i32 1
  %15 = load ptr, ptr %m_search_10, align 8
  %isOverlap11 = getelementptr inbounds %struct.USearch, ptr %15, i32 0, i32 2
  store i8 %14, ptr %isOverlap11, align 4
  %16 = load ptr, ptr %that.addr, align 8
  %m_search_12 = getelementptr inbounds %"class.icu_75::SearchIterator", ptr %16, i32 0, i32 1
  %17 = load ptr, ptr %m_search_12, align 8
  %elementComparisonType = getelementptr inbounds %struct.USearch, ptr %17, i32 0, i32 4
  %18 = load i16, ptr %elementComparisonType, align 2
  %m_search_13 = getelementptr inbounds %"class.icu_75::SearchIterator", ptr %this1, i32 0, i32 1
  %19 = load ptr, ptr %m_search_13, align 8
  %elementComparisonType14 = getelementptr inbounds %struct.USearch, ptr %19, i32 0, i32 4
  store i16 %18, ptr %elementComparisonType14, align 2
  %20 = load ptr, ptr %that.addr, align 8
  %m_search_15 = getelementptr inbounds %"class.icu_75::SearchIterator", ptr %20, i32 0, i32 1
  %21 = load ptr, ptr %m_search_15, align 8
  %matchedIndex = getelementptr inbounds %struct.USearch, ptr %21, i32 0, i32 7
  %22 = load i32, ptr %matchedIndex, align 8
  %m_search_16 = getelementptr inbounds %"class.icu_75::SearchIterator", ptr %this1, i32 0, i32 1
  %23 = load ptr, ptr %m_search_16, align 8
  %matchedIndex17 = getelementptr inbounds %struct.USearch, ptr %23, i32 0, i32 7
  store i32 %22, ptr %matchedIndex17, align 8
  %24 = load ptr, ptr %that.addr, align 8
  %m_search_18 = getelementptr inbounds %"class.icu_75::SearchIterator", ptr %24, i32 0, i32 1
  %25 = load ptr, ptr %m_search_18, align 8
  %matchedLength = getelementptr inbounds %struct.USearch, ptr %25, i32 0, i32 8
  %26 = load i32, ptr %matchedLength, align 4
  %m_search_19 = getelementptr inbounds %"class.icu_75::SearchIterator", ptr %this1, i32 0, i32 1
  %27 = load ptr, ptr %m_search_19, align 8
  %matchedLength20 = getelementptr inbounds %struct.USearch, ptr %27, i32 0, i32 8
  store i32 %26, ptr %matchedLength20, align 4
  %28 = load ptr, ptr %that.addr, align 8
  %m_search_21 = getelementptr inbounds %"class.icu_75::SearchIterator", ptr %28, i32 0, i32 1
  %29 = load ptr, ptr %m_search_21, align 8
  %text = getelementptr inbounds %struct.USearch, ptr %29, i32 0, i32 0
  %30 = load ptr, ptr %text, align 8
  %m_search_22 = getelementptr inbounds %"class.icu_75::SearchIterator", ptr %this1, i32 0, i32 1
  %31 = load ptr, ptr %m_search_22, align 8
  %text23 = getelementptr inbounds %struct.USearch, ptr %31, i32 0, i32 0
  store ptr %30, ptr %text23, align 8
  %32 = load ptr, ptr %that.addr, align 8
  %m_search_24 = getelementptr inbounds %"class.icu_75::SearchIterator", ptr %32, i32 0, i32 1
  %33 = load ptr, ptr %m_search_24, align 8
  %textLength = getelementptr inbounds %struct.USearch, ptr %33, i32 0, i32 1
  %34 = load i32, ptr %textLength, align 8
  %m_search_25 = getelementptr inbounds %"class.icu_75::SearchIterator", ptr %this1, i32 0, i32 1
  %35 = load ptr, ptr %m_search_25, align 8
  %textLength26 = getelementptr inbounds %struct.USearch, ptr %35, i32 0, i32 1
  store i32 %34, ptr %textLength26, align 8
  br label %if.end

if.end:                                           ; preds = %if.then, %entry
  ret ptr %this1
}