; Function Attrs: mustprogress uwtable
define noundef nonnull align 8 dereferenceable(88) ptr @_ZN6icu_7514SearchIteratoraSERKS0_(ptr noundef nonnull returned align 8 dereferenceable(88) %this, ptr noundef nonnull align 8 dereferenceable(88) %that) local_unnamed_addr #0 align 2 {
entry:
  %cmp.not = icmp eq ptr %this, %that
  br i1 %cmp.not, label %if.end, label %if.then

if.then:                                          ; preds = %entry
  %m_breakiterator_ = getelementptr inbounds i8, ptr %that, i64 16
  %0 = load ptr, ptr %m_breakiterator_, align 8
  %m_breakiterator_2 = getelementptr inbounds i8, ptr %this, i64 16
  store ptr %0, ptr %m_breakiterator_2, align 8
  %m_text_ = getelementptr inbounds i8, ptr %that, i64 24
  %m_text_3 = getelementptr inbounds i8, ptr %this, i64 24
  %call = tail call noundef nonnull align 8 dereferenceable(64) ptr @_ZN6icu_7513UnicodeStringaSERKS0_(ptr noundef nonnull align 8 dereferenceable(64) %m_text_3, ptr noundef nonnull align 8 dereferenceable(64) %m_text_)
  %m_search_ = getelementptr inbounds i8, ptr %that, i64 8
  %1 = load ptr, ptr %m_search_, align 8
  %breakIter = getelementptr inbounds i8, ptr %1, i64 24
  %2 = load ptr, ptr %breakIter, align 8
  %m_search_4 = getelementptr inbounds i8, ptr %this, i64 8
  %3 = load ptr, ptr %m_search_4, align 8
  %breakIter5 = getelementptr inbounds i8, ptr %3, i64 24
  store ptr %2, ptr %breakIter5, align 8
  %4 = load ptr, ptr %m_search_, align 8
  %isCanonicalMatch = getelementptr inbounds i8, ptr %4, i64 13
  %5 = load i8, ptr %isCanonicalMatch, align 1
  %6 = load ptr, ptr %m_search_4, align 8
  %isCanonicalMatch8 = getelementptr inbounds i8, ptr %6, i64 13
  store i8 %5, ptr %isCanonicalMatch8, align 1
  %7 = load ptr, ptr %m_search_, align 8
  %isOverlap = getelementptr inbounds i8, ptr %7, i64 12
  %8 = load i8, ptr %isOverlap, align 4
  %9 = load ptr, ptr %m_search_4, align 8
  %isOverlap11 = getelementptr inbounds i8, ptr %9, i64 12
  store i8 %8, ptr %isOverlap11, align 4
  %10 = load ptr, ptr %m_search_, align 8
  %elementComparisonType = getelementptr inbounds i8, ptr %10, i64 14
  %11 = load i16, ptr %elementComparisonType, align 2
  %12 = load ptr, ptr %m_search_4, align 8
  %elementComparisonType14 = getelementptr inbounds i8, ptr %12, i64 14
  store i16 %11, ptr %elementComparisonType14, align 2
  %13 = load ptr, ptr %m_search_, align 8
  %matchedIndex = getelementptr inbounds i8, ptr %13, i64 32
  %14 = load i32, ptr %matchedIndex, align 8
  %15 = load ptr, ptr %m_search_4, align 8
  %matchedIndex17 = getelementptr inbounds i8, ptr %15, i64 32
  store i32 %14, ptr %matchedIndex17, align 8
  %16 = load ptr, ptr %m_search_, align 8
  %matchedLength = getelementptr inbounds i8, ptr %16, i64 36
  %17 = load i32, ptr %matchedLength, align 4
  %18 = load ptr, ptr %m_search_4, align 8
  %matchedLength20 = getelementptr inbounds i8, ptr %18, i64 36
  store i32 %17, ptr %matchedLength20, align 4
  %19 = load ptr, ptr %m_search_, align 8
  %20 = load ptr, ptr %19, align 8
  %21 = load ptr, ptr %m_search_4, align 8
  store ptr %20, ptr %21, align 8
  %22 = load ptr, ptr %m_search_, align 8
  %textLength = getelementptr inbounds i8, ptr %22, i64 8
  %23 = load i32, ptr %textLength, align 8
  %24 = load ptr, ptr %m_search_4, align 8
  %textLength26 = getelementptr inbounds i8, ptr %24, i64 8
  store i32 %23, ptr %textLength26, align 8
  br label %if.end

if.end:                                           ; preds = %if.then, %entry
  ret ptr %this
}